; ModuleID = '19/3020.cpp'
source_filename = "19/3020.cpp"
target datalayout = "e-m:e-p270:32:32-p271:32:32-p272:64:64-i64:64-f80:128-n8:16:32:64-S128"
target triple = "x86_64-pc-linux-gnu"

%"class.std::ios_base::Init" = type { i8 }
%"class.std::basic_istream" = type { i32 (...)**, i64, %"class.std::basic_ios" }
%"class.std::basic_ios" = type { %"class.std::ios_base", %"class.std::basic_ostream"*, i8, i8, %"class.std::basic_streambuf"*, %"class.std::ctype"*, %"class.std::num_put"*, %"class.std::num_get"* }
%"class.std::ios_base" = type { i32 (...)**, i64, i64, i32, i32, i32, %"struct.std::ios_base::_Callback_list"*, %"struct.std::ios_base::_Words", [8 x %"struct.std::ios_base::_Words"], i32, %"struct.std::ios_base::_Words"*, %"class.std::locale" }
%"struct.std::ios_base::_Callback_list" = type { %"struct.std::ios_base::_Callback_list"*, void (i32, %"class.std::ios_base"*, i32)*, i32, i32 }
%"struct.std::ios_base::_Words" = type { i8*, i64 }
%"class.std::locale" = type { %"class.std::locale::_Impl"* }
%"class.std::locale::_Impl" = type { i32, %"class.std::locale::facet"**, i64, %"class.std::locale::facet"**, i8** }
%"class.std::locale::facet" = type <{ i32 (...)**, i32, [4 x i8] }>
%"class.std::basic_ostream" = type { i32 (...)**, %"class.std::basic_ios" }
%"class.std::basic_streambuf" = type { i32 (...)**, i8*, i8*, i8*, i8*, i8*, i8*, %"class.std::locale" }
%"class.std::ctype" = type <{ %"class.std::locale::facet.base", [4 x i8], %struct.__locale_struct*, i8, [7 x i8], i32*, i32*, i16*, i8, [256 x i8], [256 x i8], i8, [6 x i8] }>
%"class.std::locale::facet.base" = type <{ i32 (...)**, i32 }>
%struct.__locale_struct = type { [13 x %struct.__locale_data*], i16*, i32*, i32*, [13 x i8*] }
%struct.__locale_data = type opaque
%"class.std::num_put" = type { %"class.std::locale::facet.base", [4 x i8] }
%"class.std::num_get" = type { %"class.std::locale::facet.base", [4 x i8] }

@_ZStL8__ioinit = internal global %"class.std::ios_base::Init" zeroinitializer, align 1
@__dso_handle = external hidden global i8
@_ZSt3cin = external dso_local global %"class.std::basic_istream", align 8
@_ZSt4cout = external dso_local global %"class.std::basic_ostream", align 8
@.str = private unnamed_addr constant [2 x i8] c" \00", align 1
@llvm.global_ctors = appending global [1 x { i32, void ()*, i8* }] [{ i32, void ()*, i8* } { i32 65535, void ()* @_GLOBAL__sub_I_3020.cpp, i8* null }]

; Function Attrs: noinline uwtable
define internal void @__cxx_global_var_init() #0 section ".text.startup" {
  call void @_ZNSt8ios_base4InitC1Ev(%"class.std::ios_base::Init"* @_ZStL8__ioinit)
  %1 = call i32 @__cxa_atexit(void (i8*)* bitcast (void (%"class.std::ios_base::Init"*)* @_ZNSt8ios_base4InitD1Ev to void (i8*)*), i8* getelementptr inbounds (%"class.std::ios_base::Init", %"class.std::ios_base::Init"* @_ZStL8__ioinit, i32 0, i32 0), i8* @__dso_handle) #3
  ret void
}

declare dso_local void @_ZNSt8ios_base4InitC1Ev(%"class.std::ios_base::Init"*) unnamed_addr #1

; Function Attrs: nounwind
declare dso_local void @_ZNSt8ios_base4InitD1Ev(%"class.std::ios_base::Init"*) unnamed_addr #2

; Function Attrs: nounwind
declare dso_local i32 @__cxa_atexit(void (i8*)*, i8*, i8*) #3

; Function Attrs: noinline norecurse uwtable
define dso_local i32 @main() #4 {
  %1 = alloca i32, align 4
  %2 = alloca i32, align 4
  %3 = alloca i32, align 4
  %4 = alloca i32, align 4
  %5 = alloca [51 x i32], align 16
  %6 = alloca i32, align 4
  %7 = alloca [51 x [101 x i8]], align 16
  %8 = alloca [101 x i8], align 16
  %9 = alloca [101 x i8], align 16
  %10 = alloca i8, align 1
  store i32 0, i32* %1, align 4
  store i32 0, i32* %2, align 4
  store i32 -1, i32* %4, align 4
  store i32 0, i32* %6, align 4
  br label %11

11:                                               ; preds = %0, %25
  %12 = load i32, i32* %2, align 4
  %13 = sext i32 %12 to i64
  %14 = getelementptr inbounds [51 x [101 x i8]], [51 x [101 x i8]]* %7, i64 0, i64 %13
  %15 = getelementptr inbounds [101 x i8], [101 x i8]* %14, i64 0, i64 0
  %16 = call dereferenceable(280) %"class.std::basic_istream"* @_ZStrsIcSt11char_traitsIcEERSt13basic_istreamIT_T0_ES6_PS3_(%"class.std::basic_istream"* dereferenceable(280) @_ZSt3cin, i8* %15)
  %17 = load i32, i32* %2, align 4
  %18 = add nsw i32 %17, 1
  store i32 %18, i32* %2, align 4
  %19 = call i32 @_ZNSi3getEv(%"class.std::basic_istream"* @_ZSt3cin)
  %20 = trunc i32 %19 to i8
  store i8 %20, i8* %10, align 1
  %21 = load i8, i8* %10, align 1
  %22 = sext i8 %21 to i32
  %23 = icmp eq i32 %22, 10
  br i1 %23, label %24, label %25

24:                                               ; preds = %11
  br label %26

25:                                               ; preds = %11
  br label %11

26:                                               ; preds = %24
  %27 = load i32, i32* %2, align 4
  %28 = add nsw i32 %27, -1
  store i32 %28, i32* %2, align 4
  %29 = getelementptr inbounds [101 x i8], [101 x i8]* %8, i64 0, i64 0
  %30 = call dereferenceable(280) %"class.std::basic_istream"* @_ZStrsIcSt11char_traitsIcEERSt13basic_istreamIT_T0_ES6_PS3_(%"class.std::basic_istream"* dereferenceable(280) @_ZSt3cin, i8* %29)
  %31 = getelementptr inbounds [101 x i8], [101 x i8]* %9, i64 0, i64 0
  %32 = call dereferenceable(280) %"class.std::basic_istream"* @_ZStrsIcSt11char_traitsIcEERSt13basic_istreamIT_T0_ES6_PS3_(%"class.std::basic_istream"* dereferenceable(280) %30, i8* %31)
  store i32 0, i32* %3, align 4
  br label %33

33:                                               ; preds = %53, %26
  %34 = load i32, i32* %3, align 4
  %35 = load i32, i32* %2, align 4
  %36 = icmp sle i32 %34, %35
  br i1 %36, label %37, label %56

37:                                               ; preds = %33
  %38 = load i32, i32* %3, align 4
  %39 = sext i32 %38 to i64
  %40 = getelementptr inbounds [51 x [101 x i8]], [51 x [101 x i8]]* %7, i64 0, i64 %39
  %41 = getelementptr inbounds [101 x i8], [101 x i8]* %40, i64 0, i64 0
  %42 = getelementptr inbounds [101 x i8], [101 x i8]* %8, i64 0, i64 0
  %43 = call i32 @strcmp(i8* %41, i8* %42) #6
  %44 = icmp eq i32 %43, 0
  br i1 %44, label %45, label %52

45:                                               ; preds = %37
  %46 = load i32, i32* %4, align 4
  %47 = add nsw i32 %46, 1
  store i32 %47, i32* %4, align 4
  %48 = load i32, i32* %3, align 4
  %49 = load i32, i32* %4, align 4
  %50 = sext i32 %49 to i64
  %51 = getelementptr inbounds [51 x i32], [51 x i32]* %5, i64 0, i64 %50
  store i32 %48, i32* %51, align 4
  br label %52

52:                                               ; preds = %45, %37
  br label %53

53:                                               ; preds = %52
  %54 = load i32, i32* %3, align 4
  %55 = add nsw i32 %54, 1
  store i32 %55, i32* %3, align 4
  br label %33

56:                                               ; preds = %33
  store i32 0, i32* %3, align 4
  br label %57

57:                                               ; preds = %105, %56
  %58 = load i32, i32* %3, align 4
  %59 = load i32, i32* %2, align 4
  %60 = icmp sle i32 %58, %59
  br i1 %60, label %61, label %108

61:                                               ; preds = %57
  %62 = load i32, i32* %6, align 4
  %63 = load i32, i32* %4, align 4
  %64 = icmp sle i32 %62, %63
  br i1 %64, label %65, label %86

65:                                               ; preds = %61
  %66 = load i32, i32* %6, align 4
  %67 = sext i32 %66 to i64
  %68 = getelementptr inbounds [51 x i32], [51 x i32]* %5, i64 0, i64 %67
  %69 = load i32, i32* %68, align 4
  %70 = load i32, i32* %3, align 4
  %71 = icmp eq i32 %69, %70
  br i1 %71, label %72, label %86

72:                                               ; preds = %65
  %73 = load i32, i32* %3, align 4
  %74 = load i32, i32* %2, align 4
  %75 = icmp eq i32 %73, %74
  br i1 %75, label %76, label %79

76:                                               ; preds = %72
  %77 = getelementptr inbounds [101 x i8], [101 x i8]* %9, i64 0, i64 0
  %78 = call dereferenceable(272) %"class.std::basic_ostream"* @_ZStlsISt11char_traitsIcEERSt13basic_ostreamIcT_ES5_PKc(%"class.std::basic_ostream"* dereferenceable(272) @_ZSt4cout, i8* %77)
  br label %83

79:                                               ; preds = %72
  %80 = getelementptr inbounds [101 x i8], [101 x i8]* %9, i64 0, i64 0
  %81 = call dereferenceable(272) %"class.std::basic_ostream"* @_ZStlsISt11char_traitsIcEERSt13basic_ostreamIcT_ES5_PKc(%"class.std::basic_ostream"* dereferenceable(272) @_ZSt4cout, i8* %80)
  %82 = call dereferenceable(272) %"class.std::basic_ostream"* @_ZStlsISt11char_traitsIcEERSt13basic_ostreamIcT_ES5_PKc(%"class.std::basic_ostream"* dereferenceable(272) %81, i8* getelementptr inbounds ([2 x i8], [2 x i8]* @.str, i64 0, i64 0))
  br label %83

83:                                               ; preds = %79, %76
  %84 = load i32, i32* %6, align 4
  %85 = add nsw i32 %84, 1
  store i32 %85, i32* %6, align 4
  br label %104

86:                                               ; preds = %65, %61
  %87 = load i32, i32* %3, align 4
  %88 = load i32, i32* %2, align 4
  %89 = icmp eq i32 %87, %88
  br i1 %89, label %90, label %96

90:                                               ; preds = %86
  %91 = load i32, i32* %3, align 4
  %92 = sext i32 %91 to i64
  %93 = getelementptr inbounds [51 x [101 x i8]], [51 x [101 x i8]]* %7, i64 0, i64 %92
  %94 = getelementptr inbounds [101 x i8], [101 x i8]* %93, i64 0, i64 0
  %95 = call dereferenceable(272) %"class.std::basic_ostream"* @_ZStlsISt11char_traitsIcEERSt13basic_ostreamIcT_ES5_PKc(%"class.std::basic_ostream"* dereferenceable(272) @_ZSt4cout, i8* %94)
  br label %103

96:                                               ; preds = %86
  %97 = load i32, i32* %3, align 4
  %98 = sext i32 %97 to i64
  %99 = getelementptr inbounds [51 x [101 x i8]], [51 x [101 x i8]]* %7, i64 0, i64 %98
  %100 = getelementptr inbounds [101 x i8], [101 x i8]* %99, i64 0, i64 0
  %101 = call dereferenceable(272) %"class.std::basic_ostream"* @_ZStlsISt11char_traitsIcEERSt13basic_ostreamIcT_ES5_PKc(%"class.std::basic_ostream"* dereferenceable(272) @_ZSt4cout, i8* %100)
  %102 = call dereferenceable(272) %"class.std::basic_ostream"* @_ZStlsISt11char_traitsIcEERSt13basic_ostreamIcT_ES5_PKc(%"class.std::basic_ostream"* dereferenceable(272) %101, i8* getelementptr inbounds ([2 x i8], [2 x i8]* @.str, i64 0, i64 0))
  br label %103

103:                                              ; preds = %96, %90
  br label %104

104:                                              ; preds = %103, %83
  br label %105

105:                                              ; preds = %104
  %106 = load i32, i32* %3, align 4
  %107 = add nsw i32 %106, 1
  store i32 %107, i32* %3, align 4
  br label %57

108:                                              ; preds = %57
  ret i32 0
}

declare dso_local dereferenceable(280) %"class.std::basic_istream"* @_ZStrsIcSt11char_traitsIcEERSt13basic_istreamIT_T0_ES6_PS3_(%"class.std::basic_istream"* dereferenceable(280), i8*) #1

declare dso_local i32 @_ZNSi3getEv(%"class.std::basic_istream"*) #1

; Function Attrs: nounwind readonly
declare dso_local i32 @strcmp(i8*, i8*) #5

declare dso_local dereferenceable(272) %"class.std::basic_ostream"* @_ZStlsISt11char_traitsIcEERSt13basic_ostreamIcT_ES5_PKc(%"class.std::basic_ostream"* dereferenceable(272), i8*) #1

; Function Attrs: noinline uwtable
define internal void @_GLOBAL__sub_I_3020.cpp() #0 section ".text.startup" {
  call void @__cxx_global_var_init()
  ret void
}


!llvm.module.flags = !{!0}
!llvm.ident = !{!1}

!0 = !{i32 1, !"wchar_size", i32 4}
!1 = !{!"clang version 10.0.0-4ubuntu1 "}
